; ModuleID = '33/158.c'
source_filename = "33/158.c"
target datalayout = "e-m:e-p270:32:32-p271:32:32-p272:64:64-i64:64-f80:128-n8:16:32:64-S128"
target triple = "x86_64-pc-linux-gnu"

@.str = private unnamed_addr constant [3 x i8] c"%d\00", align 1
@.str.1 = private unnamed_addr constant [3 x i8] c"%s\00", align 1
@.str.2 = private unnamed_addr constant [4 x i8] c"%s\0A\00", align 1

; Function Attrs: noinline nounwind uwtable
define dso_local signext i8 @hb(i8 signext %0) #0 {
  %2 = alloca i8, align 1
  store i8 %0, i8* %2, align 1
  %3 = load i8, i8* %2, align 1
  %4 = sext i8 %3 to i32
  %5 = icmp eq i32 %4, 65
  br i1 %5, label %6, label %7

6:                                                ; preds = %1
  store i8 84, i8* %2, align 1
  br label %25

7:                                                ; preds = %1
  %8 = load i8, i8* %2, align 1
  %9 = sext i8 %8 to i32
  %10 = icmp eq i32 %9, 84
  br i1 %10, label %11, label %12

11:                                               ; preds = %7
  store i8 65, i8* %2, align 1
  br label %24

12:                                               ; preds = %7
  %13 = load i8, i8* %2, align 1
  %14 = sext i8 %13 to i32
  %15 = icmp eq i32 %14, 67
  br i1 %15, label %16, label %17

16:                                               ; preds = %12
  store i8 71, i8* %2, align 1
  br label %23

17:                                               ; preds = %12
  %18 = load i8, i8* %2, align 1
  %19 = sext i8 %18 to i32
  %20 = icmp eq i32 %19, 71
  br i1 %20, label %21, label %22

21:                                               ; preds = %17
  store i8 67, i8* %2, align 1
  br label %22

22:                                               ; preds = %21, %17
  br label %23

23:                                               ; preds = %22, %16
  br label %24

24:                                               ; preds = %23, %11
  br label %25

25:                                               ; preds = %24, %6
  %26 = load i8, i8* %2, align 1
  ret i8 %26
}

; Function Attrs: noinline nounwind uwtable
define dso_local i32 @main() #0 {
  %1 = alloca i32, align 4
  %2 = alloca i32, align 4
  %3 = alloca i32, align 4
  %4 = alloca [256 x i8], align 16
  %5 = alloca i32, align 4
  %6 = alloca i32, align 4
  store i32 0, i32* %1, align 4
  %7 = call i32 (i8*, ...) @__isoc99_scanf(i8* getelementptr inbounds ([3 x i8], [3 x i8]* @.str, i64 0, i64 0), i32* %2)
  store i32 0, i32* %3, align 4
  br label %8

8:                                                ; preds = %38, %0
  %9 = load i32, i32* %3, align 4
  %10 = load i32, i32* %2, align 4
  %11 = icmp slt i32 %9, %10
  br i1 %11, label %12, label %41

12:                                               ; preds = %8
  %13 = bitcast [256 x i8]* %4 to i8*
  call void @llvm.memset.p0i8.i64(i8* align 16 %13, i8 0, i64 256, i1 false)
  %14 = getelementptr inbounds [256 x i8], [256 x i8]* %4, i64 0, i64 0
  %15 = call i32 (i8*, ...) @__isoc99_scanf(i8* getelementptr inbounds ([3 x i8], [3 x i8]* @.str.1, i64 0, i64 0), i8* %14)
  %16 = getelementptr inbounds [256 x i8], [256 x i8]* %4, i64 0, i64 0
  %17 = call i64 @strlen(i8* %16) #4
  %18 = trunc i64 %17 to i32
  store i32 %18, i32* %5, align 4
  store i32 0, i32* %6, align 4
  br label %19

19:                                               ; preds = %32, %12
  %20 = load i32, i32* %6, align 4
  %21 = load i32, i32* %5, align 4
  %22 = icmp slt i32 %20, %21
  br i1 %22, label %23, label %35

23:                                               ; preds = %19
  %24 = load i32, i32* %6, align 4
  %25 = sext i32 %24 to i64
  %26 = getelementptr inbounds [256 x i8], [256 x i8]* %4, i64 0, i64 %25
  %27 = load i8, i8* %26, align 1
  %28 = call signext i8 @hb(i8 signext %27)
  %29 = load i32, i32* %6, align 4
  %30 = sext i32 %29 to i64
  %31 = getelementptr inbounds [256 x i8], [256 x i8]* %4, i64 0, i64 %30
  store i8 %28, i8* %31, align 1
  br label %32

32:                                               ; preds = %23
  %33 = load i32, i32* %6, align 4
  %34 = add nsw i32 %33, 1
  store i32 %34, i32* %6, align 4
  br label %19

35:                                               ; preds = %19
  %36 = getelementptr inbounds [256 x i8], [256 x i8]* %4, i64 0, i64 0
  %37 = call i32 (i8*, ...) @printf(i8* getelementptr inbounds ([4 x i8], [4 x i8]* @.str.2, i64 0, i64 0), i8* %36)
  br label %38

38:                                               ; preds = %35
  %39 = load i32, i32* %3, align 4
  %40 = add nsw i32 %39, 1
  store i32 %40, i32* %3, align 4
  br label %8

41:                                               ; preds = %8
  ret i32 0
}

declare dso_local i32 @__isoc99_scanf(i8*, ...) #1

; Function Attrs: argmemonly nounwind willreturn
declare void @llvm.memset.p0i8.i64(i8* nocapture writeonly, i8, i64, i1 immarg) #2

; Function Attrs: nounwind readonly
declare dso_local i64 @strlen(i8*) #3

declare dso_local i32 @printf(i8*, ...) #1


!llvm.module.flags = !{!0}
!llvm.ident = !{!1}

!0 = !{i32 1, !"wchar_size", i32 4}
!1 = !{!"clang version 10.0.0-4ubuntu1 "}
